target datalayout = "e-m:e-p270:32:32-p271:32:32-p272:64:64-i64:64-i128:128-f80:128-n8:16:32:64-S128"
target triple = "x86_64-pc-linux-gnu"

%"class.std::__cxx11::basic_string" = type { %"struct.std::__cxx11::basic_string<char>::_Alloc_hider", i64, %union.anon }
%"struct.std::__cxx11::basic_string<char>::_Alloc_hider" = type { ptr }
%union.anon = type { i64, [8 x i8] }
%"struct.std::_Rb_tree_header" = type { %"struct.std::_Rb_tree_node_base", i64 }
%"struct.std::_Rb_tree_node_base" = type { i32, ptr, ptr, ptr }
%"class.gmx::OptionInfo" = type { ptr, ptr }
%"class.gmx::FlagsTemplate" = type { i64 }
%"class.gmx::AbstractOptionStorage.base" = type <{ ptr, %"class.std::__cxx11::basic_string", %"class.std::__cxx11::basic_string", %"class.gmx::FlagsTemplate", ptr, i32, i32, i8, i8 }>
%"class.gmx::AbstractOption" = type { ptr, i32, i32, ptr, ptr, %"class.gmx::FlagsTemplate", ptr }
%"class.gmx::FloatOptionStorage" = type { %"class.gmx::OptionStorageTemplateSimple.base.146", %"class.gmx::FloatOptionInfo", i8, double }
%"class.gmx::OptionStorageTemplateSimple.base.146" = type <{ %"class.gmx::OptionStorageTemplate.118", %"class.gmx::OptionValueConverterSimple.140", i8 }>
%"class.gmx::OptionStorageTemplate.118" = type { %"class.gmx::AbstractOptionStorage.base", %"class.std::vector.119", %"class.std::unique_ptr.124", %"class.std::unique_ptr.132" }
%"class.std::vector.119" = type { %"struct.std::_Vector_base.120" }
%"struct.std::_Vector_base.120" = type { %"struct.std::_Vector_base<float, std::allocator<float>>::_Vector_impl" }
%"struct.std::_Vector_base<float, std::allocator<float>>::_Vector_impl" = type { %"struct.std::_Vector_base<float, std::allocator<float>>::_Vector_impl_data" }
%"struct.std::_Vector_base<float, std::allocator<float>>::_Vector_impl_data" = type { ptr, ptr, ptr }
%"class.std::unique_ptr.124" = type { %"struct.std::__uniq_ptr_data.125" }
%"struct.std::__uniq_ptr_data.125" = type { %"class.std::__uniq_ptr_impl.126" }
%"class.std::__uniq_ptr_impl.126" = type { %"class.std::tuple.127" }
%"class.std::tuple.127" = type { %"struct.std::_Tuple_impl.128" }
%"struct.std::_Tuple_impl.128" = type { %"struct.std::_Head_base.131" }
%"struct.std::_Head_base.131" = type { ptr }
%"class.std::unique_ptr.132" = type { %"struct.std::__uniq_ptr_data.133" }
%"struct.std::__uniq_ptr_data.133" = type { %"class.std::__uniq_ptr_impl.134" }
%"class.std::__uniq_ptr_impl.134" = type { %"class.std::tuple.135" }
%"class.std::tuple.135" = type { %"struct.std::_Tuple_impl.136" }
%"struct.std::_Tuple_impl.136" = type { %"struct.std::_Head_base.139" }
%"struct.std::_Head_base.139" = type { ptr }
%"class.gmx::OptionValueConverterSimple.140" = type { %"class.std::map.141" }
%"class.std::map.141" = type { %"class.std::_Rb_tree.142" }
%"class.std::_Rb_tree.142" = type { %"struct.std::_Rb_tree<std::type_index, std::pair<const std::type_index, std::function<float (const gmx::Any &)>>, std::_Select1st<std::pair<const std::type_index, std::function<float (const gmx::Any &)>>>, std::less<std::type_index>>::_Rb_tree_impl" }
%"struct.std::_Rb_tree<std::type_index, std::pair<const std::type_index, std::function<float (const gmx::Any &)>>, std::_Select1st<std::pair<const std::type_index, std::function<float (const gmx::Any &)>>>, std::less<std::type_index>>::_Rb_tree_impl" = type { [8 x i8], %"struct.std::_Rb_tree_header" }
%"class.gmx::FloatOptionInfo" = type { %"class.gmx::OptionInfo" }
%"class.gmx::FloatOption" = type <{ %"class.gmx::OptionTemplate.147", i8, [7 x i8] }>
%"class.gmx::OptionTemplate.147" = type { %"class.gmx::AbstractOption", ptr, ptr, ptr, ptr, ptr }
%"class.gmx::OptionStorageTemplateSimple.117" = type <{ %"class.gmx::OptionStorageTemplate.118", %"class.gmx::OptionValueConverterSimple.140", i8, [7 x i8] }>

@_ZN3gmx15FloatOptionInfoC1EPNS_18FloatOptionStorageE = unnamed_addr alias void (ptr, ptr), ptr @_ZN3gmx15FloatOptionInfoC2EPNS_18FloatOptionStorageE

; Function Attrs: noinline noreturn nounwind uwtable
define linkonce_odr hidden void @__clang_call_terminate(ptr noundef %0) #10 comdat {
  %2 = call ptr @__cxa_begin_catch(ptr %0) #19
  call void @_ZSt9terminatev() #23
  unreachable
}

; Function Attrs: mustprogress nounwind uwtable
define linkonce_odr void @_ZNSt15_Rb_tree_header8_M_resetEv(ptr noundef nonnull align 8 dereferenceable(40) %0) #2 comdat align 2 {
  %2 = alloca ptr, align 8
  store ptr %0, ptr %2, align 8, !tbaa !541
  %3 = load ptr, ptr %2, align 8
  %4 = getelementptr inbounds nuw %"struct.std::_Rb_tree_header", ptr %3, i32 0, i32 0
  %5 = getelementptr inbounds nuw %"struct.std::_Rb_tree_node_base", ptr %4, i32 0, i32 1
  store ptr null, ptr %5, align 8, !tbaa !546
  %6 = getelementptr inbounds nuw %"struct.std::_Rb_tree_header", ptr %3, i32 0, i32 0
  %7 = getelementptr inbounds nuw %"struct.std::_Rb_tree_header", ptr %3, i32 0, i32 0
  %8 = getelementptr inbounds nuw %"struct.std::_Rb_tree_node_base", ptr %7, i32 0, i32 2
  store ptr %6, ptr %8, align 8, !tbaa !547
  %9 = getelementptr inbounds nuw %"struct.std::_Rb_tree_header", ptr %3, i32 0, i32 0
  %10 = getelementptr inbounds nuw %"struct.std::_Rb_tree_header", ptr %3, i32 0, i32 0
  %11 = getelementptr inbounds nuw %"struct.std::_Rb_tree_node_base", ptr %10, i32 0, i32 3
  store ptr %9, ptr %11, align 8, !tbaa !548
  %12 = getelementptr inbounds nuw %"struct.std::_Rb_tree_header", ptr %3, i32 0, i32 1
  store i64 0, ptr %12, align 8, !tbaa !549
  ret void
}

; Function Attrs: mustprogress nounwind uwtable
define linkonce_odr void @_ZNSt15__new_allocatorISt13_Rb_tree_nodeISt4pairIKSt10type_indexSt8functionIFfRKN3gmx3AnyEEEEEEC2Ev(ptr noundef nonnull align 1 dereferenceable(1) %0) unnamed_addr #2 comdat align 2 {
  %2 = alloca ptr, align 8
  store ptr %0, ptr %2, align 8, !tbaa !844
  ret void
}

; Function Attrs: mustprogress nounwind uwtable
define linkonce_odr void @_ZNSt15_Rb_tree_headerC2Ev(ptr noundef nonnull align 8 dereferenceable(40) %0) unnamed_addr #2 comdat align 2 personality ptr @__gxx_personality_v0 {
  %2 = alloca ptr, align 8
  store ptr %0, ptr %2, align 8, !tbaa !541
  %3 = load ptr, ptr %2, align 8
  %4 = getelementptr inbounds nuw %"struct.std::_Rb_tree_header", ptr %3, i32 0, i32 0
  %5 = getelementptr inbounds nuw %"struct.std::_Rb_tree_node_base", ptr %4, i32 0, i32 0
  store i32 0, ptr %5, align 8, !tbaa !543
  invoke void @_ZNSt15_Rb_tree_header8_M_resetEv(ptr noundef nonnull align 8 dereferenceable(40) %3)
          to label %6 unwind label %7

6:                                                ; preds = %1
  ret void

7:                                                ; preds = %1
  %8 = landingpad { ptr, i32 }
          catch ptr null
  %9 = extractvalue { ptr, i32 } %8, 0
  call void @__clang_call_terminate(ptr %9) #23
  unreachable
}

; Function Attrs: mustprogress nounwind uwtable
define linkonce_odr void @_ZNSt20_Rb_tree_key_compareISt4lessISt10type_indexEEC2Ev(ptr noundef nonnull align 1 dereferenceable(1) %0) unnamed_addr #2 comdat align 2 {
  %2 = alloca ptr, align 8
  store ptr %0, ptr %2, align 8, !tbaa !539
  ret void
}

; Function Attrs: mustprogress nounwind uwtable
define linkonce_odr void @_ZNSaISt13_Rb_tree_nodeISt4pairIKSt10type_indexSt8functionIFfRKN3gmx3AnyEEEEEEC2Ev(ptr noundef nonnull align 1 dereferenceable(1) %0) unnamed_addr #2 comdat align 2 {
  %2 = alloca ptr, align 8
  store ptr %0, ptr %2, align 8, !tbaa !846
  %3 = load ptr, ptr %2, align 8
  call void @_ZNSt15__new_allocatorISt13_Rb_tree_nodeISt4pairIKSt10type_indexSt8functionIFfRKN3gmx3AnyEEEEEEC2Ev(ptr noundef nonnull align 1 dereferenceable(1) %3) #19
  ret void
}

; Function Attrs: mustprogress nounwind uwtable
define linkonce_odr void @_ZNSt8_Rb_treeISt10type_indexSt4pairIKS0_St8functionIFfRKN3gmx3AnyEEEESt10_Select1stISA_ESt4lessIS0_ESaISA_EE13_Rb_tree_implISE_Lb1EEC2Ev(ptr noundef nonnull align 8 dereferenceable(48) %0) unnamed_addr #2 comdat align 2 {
  %2 = alloca ptr, align 8
  store ptr %0, ptr %2, align 8, !tbaa !1305
  %3 = load ptr, ptr %2, align 8
  call void @_ZNSaISt13_Rb_tree_nodeISt4pairIKSt10type_indexSt8functionIFfRKN3gmx3AnyEEEEEEC2Ev(ptr noundef nonnull align 1 dereferenceable(1) %3) #19
  call void @_ZNSt20_Rb_tree_key_compareISt4lessISt10type_indexEEC2Ev(ptr noundef nonnull align 1 dereferenceable(1) %3) #19
  %4 = getelementptr inbounds i8, ptr %3, i64 8
  call void @_ZNSt15_Rb_tree_headerC2Ev(ptr noundef nonnull align 8 dereferenceable(40) %4) #19
  ret void
}

; Function Attrs: mustprogress nounwind uwtable
define linkonce_odr void @_ZNSt8_Rb_treeISt10type_indexSt4pairIKS0_St8functionIFfRKN3gmx3AnyEEEESt10_Select1stISA_ESt4lessIS0_ESaISA_EEC2Ev(ptr noundef nonnull align 8 dereferenceable(48) %0) unnamed_addr #2 comdat align 2 {
  %2 = alloca ptr, align 8
  store ptr %0, ptr %2, align 8, !tbaa !839
  %3 = load ptr, ptr %2, align 8
  %4 = getelementptr inbounds nuw %"class.std::_Rb_tree.142", ptr %3, i32 0, i32 0
  call void @_ZNSt8_Rb_treeISt10type_indexSt4pairIKS0_St8functionIFfRKN3gmx3AnyEEEESt10_Select1stISA_ESt4lessIS0_ESaISA_EE13_Rb_tree_implISE_Lb1EEC2Ev(ptr noundef nonnull align 8 dereferenceable(48) %4) #19
  ret void
}

; Function Attrs: mustprogress nounwind uwtable
define linkonce_odr void @_ZNSt3mapISt10type_indexSt8functionIFfRKN3gmx3AnyEEESt4lessIS0_ESaISt4pairIKS0_S7_EEEC2Ev(ptr noundef nonnull align 8 dereferenceable(48) %0) unnamed_addr #2 comdat align 2 {
  %2 = alloca ptr, align 8
  store ptr %0, ptr %2, align 8, !tbaa !837
  %3 = load ptr, ptr %2, align 8
  %4 = getelementptr inbounds nuw %"class.std::map.141", ptr %3, i32 0, i32 0
  call void @_ZNSt8_Rb_treeISt10type_indexSt4pairIKS0_St8functionIFfRKN3gmx3AnyEEEESt10_Select1stISA_ESt4lessIS0_ESaISA_EEC2Ev(ptr noundef nonnull align 8 dereferenceable(48) %4) #19
  ret void
}

; Function Attrs: inlinehint mustprogress nounwind uwtable
define linkonce_odr void @_ZN3gmx26OptionValueConverterSimpleIfEC2Ev(ptr noundef nonnull align 8 dereferenceable(48) %0) unnamed_addr #9 comdat align 2 {
  %2 = alloca ptr, align 8
  store ptr %0, ptr %2, align 8, !tbaa !204
  %3 = load ptr, ptr %2, align 8
  %4 = getelementptr inbounds nuw %"class.gmx::OptionValueConverterSimple.140", ptr %3, i32 0, i32 0
  call void @_ZNSt3mapISt10type_indexSt8functionIFfRKN3gmx3AnyEEESt4lessIS0_ESaISt4pairIKS0_S7_EEEC2Ev(ptr noundef nonnull align 8 dereferenceable(48) %4) #19
  ret void
}

; Function Attrs: mustprogress uwtable
define linkonce_odr void @_ZN3gmx27OptionStorageTemplateSimpleIfEC2INS_11FloatOptionEEERKNS_14OptionTemplateIfT_EENS_13FlagsTemplateINS_10OptionFlagEEE(ptr noundef nonnull align 8 dereferenceable(193) %0, ptr noundef nonnull align 8 dereferenceable(88) %1, i64 %2) unnamed_addr #0 comdat align 2 {
  %4 = alloca %"class.gmx::FlagsTemplate", align 8
  %5 = alloca ptr, align 8
  %6 = alloca ptr, align 8
  %7 = alloca %"class.gmx::FlagsTemplate", align 8
  %8 = getelementptr inbounds nuw %"class.gmx::FlagsTemplate", ptr %4, i32 0, i32 0
  store i64 %2, ptr %8, align 8
  store ptr %0, ptr %5, align 8, !tbaa !196
  store ptr %1, ptr %6, align 8, !tbaa !198
  %9 = load ptr, ptr %5, align 8
  %10 = load ptr, ptr %6, align 8, !tbaa !198
  call void @llvm.memcpy.p0.p0.i64(ptr align 8 %7, ptr align 8 %4, i64 8, i1 false), !tbaa.struct !135
  %11 = getelementptr inbounds nuw %"class.gmx::FlagsTemplate", ptr %7, i32 0, i32 0
  %12 = load i64, ptr %11, align 8
  call void @_ZN3gmx21OptionStorageTemplateIfEC2INS_11FloatOptionEEERKNS_14OptionTemplateIfT_EENS_13FlagsTemplateINS_10OptionFlagEEE(ptr noundef nonnull align 8 dereferenceable(144) %9, ptr noundef nonnull align 8 dereferenceable(88) %10, i64 %12)
  store ptr getelementptr inbounds inrange(-16, 144) ({ [20 x ptr] }, ptr @_ZTVN3gmx27OptionStorageTemplateSimpleIfEE, i32 0, i32 0, i32 2), ptr %9, align 8, !tbaa !33
  %13 = getelementptr inbounds nuw %"class.gmx::OptionStorageTemplateSimple.117", ptr %9, i32 0, i32 1
  call void @_ZN3gmx26OptionValueConverterSimpleIfEC2Ev(ptr noundef nonnull align 8 dereferenceable(48) %13) #19
  %14 = getelementptr inbounds nuw %"class.gmx::OptionStorageTemplateSimple.117", ptr %9, i32 0, i32 2
  store i8 0, ptr %14, align 8, !tbaa !200
  ret void
}

; Function Attrs: mustprogress nounwind uwtable
define linkonce_odr void @_ZN3gmx13FlagsTemplateINS_10OptionFlagEEC2Ev(ptr noundef nonnull align 8 dereferenceable(8) %0) unnamed_addr #2 comdat align 2 {
  %2 = alloca ptr, align 8
  store ptr %0, ptr %2, align 8, !tbaa !128
  %3 = load ptr, ptr %2, align 8
  %4 = getelementptr inbounds nuw %"class.gmx::FlagsTemplate", ptr %3, i32 0, i32 0
  store i64 0, ptr %4, align 8, !tbaa !130
  ret void
}

; Function Attrs: mustprogress uwtable
define void @_ZN3gmx18FloatOptionStorageC2ERKNS_11FloatOptionE(ptr noundef nonnull align 8 dereferenceable(232) %0, ptr noundef nonnull align 8 dereferenceable(89) %1) unnamed_addr #0 align 2 personality ptr @__gxx_personality_v0 {
  %3 = alloca ptr, align 8
  %4 = alloca ptr, align 8
  %5 = alloca %"class.gmx::FlagsTemplate", align 8
  %6 = alloca ptr, align 8
  %7 = alloca i32, align 4
  store ptr %0, ptr %3, align 8, !tbaa !160
  store ptr %1, ptr %4, align 8, !tbaa !162
  %8 = load ptr, ptr %3, align 8
  %9 = load ptr, ptr %4, align 8, !tbaa !162
  call void @_ZN3gmx13FlagsTemplateINS_10OptionFlagEEC2Ev(ptr noundef nonnull align 8 dereferenceable(8) %5)
  %10 = getelementptr inbounds nuw %"class.gmx::FlagsTemplate", ptr %5, i32 0, i32 0
  %11 = load i64, ptr %10, align 8
  call void @_ZN3gmx27OptionStorageTemplateSimpleIfEC2INS_11FloatOptionEEERKNS_14OptionTemplateIfT_EENS_13FlagsTemplateINS_10OptionFlagEEE(ptr noundef nonnull align 8 dereferenceable(193) %8, ptr noundef nonnull align 8 dereferenceable(88) %9, i64 %11)
  store ptr getelementptr inbounds inrange(-16, 144) ({ [20 x ptr] }, ptr @_ZTVN3gmx18FloatOptionStorageE, i32 0, i32 0, i32 2), ptr %8, align 8, !tbaa !33
  %12 = getelementptr inbounds nuw %"class.gmx::FloatOptionStorage", ptr %8, i32 0, i32 1
  invoke void @_ZN3gmx15FloatOptionInfoC1EPNS_18FloatOptionStorageE(ptr noundef nonnull align 8 dereferenceable(16) %12, ptr noundef %8)
          to label %13 unwind label %21

13:                                               ; preds = %2
  %14 = getelementptr inbounds nuw %"class.gmx::FloatOptionStorage", ptr %8, i32 0, i32 2
  %15 = load ptr, ptr %4, align 8, !tbaa !162
  %16 = getelementptr inbounds nuw %"class.gmx::FloatOption", ptr %15, i32 0, i32 1
  %17 = load i8, ptr %16, align 8, !tbaa !164, !range !12, !noundef !13
  %18 = trunc i8 %17 to i1
  %19 = zext i1 %18 to i8
  store i8 %19, ptr %14, align 8, !tbaa !169
  %20 = getelementptr inbounds nuw %"class.gmx::FloatOptionStorage", ptr %8, i32 0, i32 3
  store double 1.000000e+00, ptr %20, align 8, !tbaa !195
  ret void

21:                                               ; preds = %2
  %22 = landingpad { ptr, i32 }
          cleanup
  %23 = extractvalue { ptr, i32 } %22, 0
  store ptr %23, ptr %6, align 8
  %24 = extractvalue { ptr, i32 } %22, 1
  store i32 %24, ptr %7, align 4
  call void @_ZN3gmx27OptionStorageTemplateSimpleIfED2Ev(ptr noundef nonnull align 8 dereferenceable(193) %8) #19
  br label %25

25:                                               ; preds = %21
  %26 = load ptr, ptr %6, align 8
  %27 = load i32, ptr %7, align 4
  %28 = insertvalue { ptr, i32 } poison, ptr %26, 0
  %29 = insertvalue { ptr, i32 } %28, i32 %27, 1
  resume { ptr, i32 } %29
}